; ModuleID = '38/1477.c'
source_filename = "38/1477.c"
target datalayout = "e-m:e-p270:32:32-p271:32:32-p272:64:64-i64:64-f80:128-n8:16:32:64-S128"
target triple = "x86_64-pc-linux-gnu"

@.str = private unnamed_addr constant [3 x i8] c"%d\00", align 1
@.str.1 = private unnamed_addr constant [4 x i8] c"%lf\00", align 1
@.str.2 = private unnamed_addr constant [7 x i8] c"%.5lf\0A\00", align 1

; Function Attrs: noinline nounwind uwtable
define dso_local i32 @main() #0 {
  %1 = alloca i32, align 4
  %2 = alloca i32, align 4
  %3 = alloca i32, align 4
  %4 = alloca [1005 x double], align 16
  %5 = alloca double, align 8
  %6 = alloca double, align 8
  %7 = alloca i32, align 4
  %8 = alloca i32, align 4
  store i32 0, i32* %1, align 4
  %9 = call i32 (i8*, ...) @__isoc99_scanf(i8* getelementptr inbounds ([3 x i8], [3 x i8]* @.str, i64 0, i64 0), i32* %2)
  br label %10

10:                                               ; preds = %66, %0
  %11 = load i32, i32* %2, align 4
  %12 = add nsw i32 %11, -1
  store i32 %12, i32* %2, align 4
  %13 = icmp ne i32 %11, 0
  br i1 %13, label %14, label %73

14:                                               ; preds = %10
  %15 = call i32 (i8*, ...) @__isoc99_scanf(i8* getelementptr inbounds ([3 x i8], [3 x i8]* @.str, i64 0, i64 0), i32* %3)
  store double 0.000000e+00, double* %5, align 8
  store double 0.000000e+00, double* %6, align 8
  store i32 0, i32* %7, align 4
  br label %16

16:                                               ; preds = %33, %14
  %17 = load i32, i32* %7, align 4
  %18 = load i32, i32* %3, align 4
  %19 = icmp slt i32 %17, %18
  br i1 %19, label %20, label %36

20:                                               ; preds = %16
  %21 = getelementptr inbounds [1005 x double], [1005 x double]* %4, i64 0, i64 0
  %22 = load i32, i32* %7, align 4
  %23 = sext i32 %22 to i64
  %24 = getelementptr inbounds double, double* %21, i64 %23
  %25 = call i32 (i8*, ...) @__isoc99_scanf(i8* getelementptr inbounds ([4 x i8], [4 x i8]* @.str.1, i64 0, i64 0), double* %24)
  %26 = getelementptr inbounds [1005 x double], [1005 x double]* %4, i64 0, i64 0
  %27 = load i32, i32* %7, align 4
  %28 = sext i32 %27 to i64
  %29 = getelementptr inbounds double, double* %26, i64 %28
  %30 = load double, double* %29, align 8
  %31 = load double, double* %6, align 8
  %32 = fadd double %31, %30
  store double %32, double* %6, align 8
  br label %33

33:                                               ; preds = %20
  %34 = load i32, i32* %7, align 4
  %35 = add nsw i32 %34, 1
  store i32 %35, i32* %7, align 4
  br label %16

36:                                               ; preds = %16
  %37 = load i32, i32* %3, align 4
  %38 = sitofp i32 %37 to double
  %39 = load double, double* %6, align 8
  %40 = fdiv double %39, %38
  store double %40, double* %6, align 8
  store i32 0, i32* %8, align 4
  br label %41

41:                                               ; preds = %63, %36
  %42 = load i32, i32* %8, align 4
  %43 = load i32, i32* %3, align 4
  %44 = icmp slt i32 %42, %43
  br i1 %44, label %45, label %66

45:                                               ; preds = %41
  %46 = getelementptr inbounds [1005 x double], [1005 x double]* %4, i64 0, i64 0
  %47 = load i32, i32* %8, align 4
  %48 = sext i32 %47 to i64
  %49 = getelementptr inbounds double, double* %46, i64 %48
  %50 = load double, double* %49, align 8
  %51 = load double, double* %6, align 8
  %52 = fsub double %50, %51
  %53 = getelementptr inbounds [1005 x double], [1005 x double]* %4, i64 0, i64 0
  %54 = load i32, i32* %8, align 4
  %55 = sext i32 %54 to i64
  %56 = getelementptr inbounds double, double* %53, i64 %55
  %57 = load double, double* %56, align 8
  %58 = load double, double* %6, align 8
  %59 = fsub double %57, %58
  %60 = fmul double %52, %59
  %61 = load double, double* %5, align 8
  %62 = fadd double %61, %60
  store double %62, double* %5, align 8
  br label %63

63:                                               ; preds = %45
  %64 = load i32, i32* %8, align 4
  %65 = add nsw i32 %64, 1
  store i32 %65, i32* %8, align 4
  br label %41

66:                                               ; preds = %41
  %67 = load double, double* %5, align 8
  %68 = load i32, i32* %3, align 4
  %69 = sitofp i32 %68 to double
  %70 = fdiv double %67, %69
  %71 = call double @sqrt(double %70) #3
  %72 = call i32 (i8*, ...) @printf(i8* getelementptr inbounds ([7 x i8], [7 x i8]* @.str.2, i64 0, i64 0), double %71)
  br label %10

73:                                               ; preds = %10
  ret i32 0
}

declare dso_local i32 @__isoc99_scanf(i8*, ...) #1

declare dso_local i32 @printf(i8*, ...) #1

; Function Attrs: nounwind
declare dso_local double @sqrt(double) #2


!llvm.module.flags = !{!0}
!llvm.ident = !{!1}

!0 = !{i32 1, !"wchar_size", i32 4}
!1 = !{!"clang version 10.0.0-4ubuntu1 "}
